target datalayout = "e-m:e-p270:32:32-p271:32:32-p272:64:64-i64:64-i128:128-f80:128-n8:16:32:64-S128"
target triple = "x86_64-pc-linux-gnu"

@.str.13 = private unnamed_addr constant [37 x i8] c"Unable to create temporary file '%s'\00", align 1

; Function Attrs: nounwind uwtable
define dso_local i32 @xmkstemp(ptr noundef %0) #0 {
  %2 = alloca ptr, align 8
  %3 = alloca i32, align 4
  %4 = alloca [4096 x i8], align 16
  %5 = alloca i32, align 4
  %6 = alloca ptr, align 8
  store ptr %0, ptr %2, align 8, !tbaa !4
  call void @llvm.lifetime.start.p0(i64 4, ptr %3) #13
  call void @llvm.lifetime.start.p0(i64 4096, ptr %4) #13
  %7 = getelementptr inbounds [4096 x i8], ptr %4, i64 0, i64 0
  %8 = load ptr, ptr %2, align 8, !tbaa !4
  %9 = call i64 @gitstrlcpy(ptr noundef %7, ptr noundef %8, i64 noundef 4096)
  %10 = load ptr, ptr %2, align 8, !tbaa !4
  %11 = call i32 @mkstemp64(ptr noundef %10)
  store i32 %11, ptr %3, align 4, !tbaa !11
  %12 = load i32, ptr %3, align 4, !tbaa !11
  %13 = icmp slt i32 %12, 0
  br i1 %13, label %14, label %30

14:                                               ; preds = %1
  call void @llvm.lifetime.start.p0(i64 4, ptr %5) #13
  %15 = call ptr @__errno_location() #19
  %16 = load i32, ptr %15, align 4, !tbaa !11
  store i32 %16, ptr %5, align 4, !tbaa !11
  call void @llvm.lifetime.start.p0(i64 8, ptr %6) #13
  %17 = load ptr, ptr %2, align 8, !tbaa !4
  %18 = call i64 @strlen(ptr noundef %17) #16
  %19 = getelementptr inbounds [4096 x i8], ptr %4, i64 0, i64 0
  %20 = call i64 @strlen(ptr noundef %19) #16
  %21 = icmp ne i64 %18, %20
  br i1 %21, label %22, label %24

22:                                               ; preds = %14
  %23 = getelementptr inbounds [4096 x i8], ptr %4, i64 0, i64 0
  store ptr %23, ptr %2, align 8, !tbaa !4
  br label %24

24:                                               ; preds = %22, %14
  %25 = load ptr, ptr %2, align 8, !tbaa !4
  %26 = call ptr @absolute_path(ptr noundef %25)
  store ptr %26, ptr %6, align 8, !tbaa !4
  %27 = load i32, ptr %5, align 4, !tbaa !11
  %28 = call ptr @__errno_location() #19
  store i32 %27, ptr %28, align 4, !tbaa !11
  %29 = load ptr, ptr %6, align 8, !tbaa !4
  call void (ptr, ...) @die_errno(ptr noundef @.str.13, ptr noundef %29) #14
  unreachable

30:                                               ; preds = %1
  %31 = load i32, ptr %3, align 4, !tbaa !11
  call void @llvm.lifetime.end.p0(i64 4096, ptr %4) #13
  call void @llvm.lifetime.end.p0(i64 4, ptr %3) #13
  ret i32 %31
}