; Function Attrs: nounwind uwtable
define dso_local range(i32 0, -2147483648) i32 @xmkstemp(ptr noundef %0) local_unnamed_addr #0 {
  %2 = alloca [4096 x i8], align 16
  call void @llvm.lifetime.start.p0(i64 4096, ptr nonnull %2) #20
  %3 = call i64 @gitstrlcpy(ptr noundef nonnull %2, ptr noundef %0, i64 noundef 4096) #20
  %4 = call i32 @mkstemp64(ptr noundef %0) #20
  %5 = icmp slt i32 %4, 0
  br i1 %5, label %6, label %12

6:                                                ; preds = %1
  %7 = tail call ptr @__errno_location() #26
  %8 = load i32, ptr %7, align 4, !tbaa !9
  %9 = call i64 @strlen(ptr noundef nonnull dereferenceable(1) %0) #23
  %10 = call i64 @strlen(ptr noundef nonnull dereferenceable(1) %2) #23
  %.not = icmp eq i64 %9, %10
  %spec.select = select i1 %.not, ptr %0, ptr %2
  %11 = call ptr @absolute_path(ptr noundef nonnull %spec.select) #20
  store i32 %8, ptr %7, align 4, !tbaa !9
  call void (ptr, ...) @die_errno(ptr noundef nonnull @.str.13, ptr noundef %11) #21
  unreachable

12:                                               ; preds = %1
  call void @llvm.lifetime.end.p0(i64 4096, ptr nonnull %2) #20
  ret i32 %4
}